; Function Attrs: nounwind uwtable
define ptr @Cudd_bddNewVarAtLevel(ptr noundef %0, i32 noundef %1) local_unnamed_addr #0 {
  %3 = getelementptr inbounds nuw i8, ptr %0, i64 136
  %4 = load i32, ptr %3, align 8
  %5 = icmp ugt i32 %4, 2147483645
  br i1 %5, label %Cudd_bddIthVar.exit, label %6

6:                                                ; preds = %2
  %.not = icmp slt i32 %1, %4
  br i1 %.not, label %16, label %7

7:                                                ; preds = %6
  %8 = icmp samesign ugt i32 %1, 2147483645
  br i1 %8, label %Cudd_bddIthVar.exit, label %9

9:                                                ; preds = %7
  %10 = getelementptr inbounds nuw i8, ptr %0, i64 40
  %11 = load ptr, ptr %10, align 8
  %12 = ptrtoint ptr %11 to i64
  %13 = xor i64 %12, 1
  %14 = inttoptr i64 %13 to ptr
  %15 = tail call ptr @cuddUniqueInter(ptr noundef nonnull %0, i32 noundef %1, ptr noundef %11, ptr noundef %14) #20
  br label %Cudd_bddIthVar.exit

16:                                               ; preds = %6
  %17 = tail call i32 @cuddInsertSubtables(ptr noundef nonnull %0, i32 noundef 1, i32 noundef %1) #20
  %.not12 = icmp eq i32 %17, 0
  br i1 %.not12, label %Cudd_bddIthVar.exit, label %18

18:                                               ; preds = %16
  %19 = getelementptr inbounds nuw i8, ptr %0, i64 344
  %20 = load ptr, ptr %19, align 8
  %21 = load i32, ptr %3, align 8
  %22 = sext i32 %21 to i64
  %23 = getelementptr ptr, ptr %20, i64 %22
  %24 = getelementptr i8, ptr %23, i64 -8
  %25 = load ptr, ptr %24, align 8
  br label %Cudd_bddIthVar.exit

Cudd_bddIthVar.exit:                              ; preds = %9, %7, %16, %2, %18
  %.0 = phi ptr [ %25, %18 ], [ null, %2 ], [ null, %16 ], [ null, %7 ], [ %15, %9 ]
  ret ptr %.0
}